; Function Attrs: mustprogress nofree norecurse nosync nounwind willreturn memory(readwrite, inaccessiblemem: none) uwtable
define void @_ZN19ImGuiInputTextState14ClearSelectionEv(ptr noundef nonnull readonly align 8 captures(none) dereferenceable(116) %0) local_unnamed_addr #9 align 2 {
  %2 = getelementptr inbounds nuw i8, ptr %0, i64 8
  %3 = load ptr, ptr %2, align 8, !tbaa !379
  %4 = load i32, ptr %3, align 4, !tbaa !393
  %5 = getelementptr inbounds nuw i8, ptr %3, i64 8
  store i32 %4, ptr %5, align 4, !tbaa !395
  %6 = getelementptr inbounds nuw i8, ptr %3, i64 4
  store i32 %4, ptr %6, align 4, !tbaa !394
  ret void
}